target datalayout = "e-m:e-p270:32:32-p271:32:32-p272:64:64-i64:64-i128:128-f80:128-n8:16:32:64-S128"
target triple = "x86_64-pc-linux-gnu"

%struct.gcm_funcs_st = type { ptr, ptr, ptr }

@OPENSSL_ia32cap_P = external global [0 x i32], align 4

; Function Attrs: nounwind uwtable
define internal void @gcm_get_funcs(ptr noundef %0) #0 {
  %2 = alloca ptr, align 8
  store ptr %0, ptr %2, align 8, !tbaa !11
  %3 = load ptr, ptr %2, align 8, !tbaa !11
  %4 = getelementptr inbounds nuw %struct.gcm_funcs_st, ptr %3, i32 0, i32 0
  store ptr @gcm_init_4bit, ptr %4, align 8, !tbaa !9
  %5 = load ptr, ptr %2, align 8, !tbaa !11
  %6 = getelementptr inbounds nuw %struct.gcm_funcs_st, ptr %5, i32 0, i32 2
  store ptr null, ptr %6, align 8, !tbaa !13
  %7 = load ptr, ptr %2, align 8, !tbaa !11
  %8 = getelementptr inbounds nuw %struct.gcm_funcs_st, ptr %7, i32 0, i32 1
  store ptr null, ptr %8, align 8, !tbaa !14
  %9 = load i32, ptr getelementptr inbounds ([0 x i32], ptr @OPENSSL_ia32cap_P, i64 0, i64 1), align 4, !tbaa !15
  %10 = and i32 %9, 2
  %11 = icmp ne i32 %10, 0
  br i1 %11, label %12, label %32

12:                                               ; preds = %1
  %13 = load i32, ptr getelementptr inbounds ([0 x i32], ptr @OPENSSL_ia32cap_P, i64 0, i64 1), align 4, !tbaa !15
  %14 = lshr i32 %13, 22
  %15 = and i32 %14, 65
  %16 = icmp eq i32 %15, 65
  br i1 %16, label %17, label %24

17:                                               ; preds = %12
  %18 = load ptr, ptr %2, align 8, !tbaa !11
  %19 = getelementptr inbounds nuw %struct.gcm_funcs_st, ptr %18, i32 0, i32 0
  store ptr @gcm_init_avx, ptr %19, align 8, !tbaa !9
  %20 = load ptr, ptr %2, align 8, !tbaa !11
  %21 = getelementptr inbounds nuw %struct.gcm_funcs_st, ptr %20, i32 0, i32 2
  store ptr @gcm_gmult_avx, ptr %21, align 8, !tbaa !13
  %22 = load ptr, ptr %2, align 8, !tbaa !11
  %23 = getelementptr inbounds nuw %struct.gcm_funcs_st, ptr %22, i32 0, i32 1
  store ptr @gcm_ghash_avx, ptr %23, align 8, !tbaa !14
  br label %31

24:                                               ; preds = %12
  %25 = load ptr, ptr %2, align 8, !tbaa !11
  %26 = getelementptr inbounds nuw %struct.gcm_funcs_st, ptr %25, i32 0, i32 0
  store ptr @gcm_init_clmul, ptr %26, align 8, !tbaa !9
  %27 = load ptr, ptr %2, align 8, !tbaa !11
  %28 = getelementptr inbounds nuw %struct.gcm_funcs_st, ptr %27, i32 0, i32 2
  store ptr @gcm_gmult_clmul, ptr %28, align 8, !tbaa !13
  %29 = load ptr, ptr %2, align 8, !tbaa !11
  %30 = getelementptr inbounds nuw %struct.gcm_funcs_st, ptr %29, i32 0, i32 1
  store ptr @gcm_ghash_clmul, ptr %30, align 8, !tbaa !14
  br label %31

31:                                               ; preds = %24, %17
  br label %37

32:                                               ; preds = %1
  %33 = load ptr, ptr %2, align 8, !tbaa !11
  %34 = getelementptr inbounds nuw %struct.gcm_funcs_st, ptr %33, i32 0, i32 2
  store ptr @gcm_gmult_4bit, ptr %34, align 8, !tbaa !13
  %35 = load ptr, ptr %2, align 8, !tbaa !11
  %36 = getelementptr inbounds nuw %struct.gcm_funcs_st, ptr %35, i32 0, i32 1
  store ptr @gcm_ghash_4bit, ptr %36, align 8, !tbaa !14
  br label %37

37:                                               ; preds = %32, %31
  ret void
}

; Function Attrs: nounwind uwtable
define void @ossl_gcm_init_4bit(ptr noundef %0, ptr noundef %1) #0 {
  %3 = alloca ptr, align 8
  %4 = alloca ptr, align 8
  %5 = alloca %struct.gcm_funcs_st, align 8
  store ptr %0, ptr %3, align 8, !tbaa !3
  store ptr %1, ptr %4, align 8, !tbaa !7
  call void @llvm.lifetime.start.p0(i64 24, ptr %5) #5
  call void @gcm_get_funcs(ptr noundef %5)
  %6 = getelementptr inbounds nuw %struct.gcm_funcs_st, ptr %5, i32 0, i32 0
  %7 = load ptr, ptr %6, align 8, !tbaa !9
  %8 = load ptr, ptr %3, align 8, !tbaa !3
  %9 = load ptr, ptr %4, align 8, !tbaa !7
  call void %7(ptr noundef %8, ptr noundef %9)
  call void @llvm.lifetime.end.p0(i64 24, ptr %5) #5
  ret void
}