; Function Attrs: nounwind uwtable
define void @ossl_gcm_init_4bit(ptr noundef %0, ptr noundef %1) local_unnamed_addr #0 {
gcm_get_funcs.exit:
  %2 = load i32, ptr getelementptr inbounds nuw (i8, ptr @OPENSSL_ia32cap_P, i64 4), align 4, !tbaa !3
  %3 = and i32 %2, 2
  %.not.i = icmp eq i32 %3, 0
  %4 = and i32 %2, 272629760
  %5 = icmp eq i32 %4, 272629760
  %gcm_init_avx.gcm_init_clmul.i = select i1 %5, ptr @gcm_init_avx, ptr @gcm_init_clmul
  %.sroa.0.0 = select i1 %.not.i, ptr @gcm_init_4bit, ptr %gcm_init_avx.gcm_init_clmul.i
  tail call void %.sroa.0.0(ptr noundef %0, ptr noundef %1) #6
  ret void
}